; Function Attrs: mustprogress nounwind uwtable
define dso_local void @_ZN4llvm21StackSafetyGlobalInfoC2EPNS_6ModuleESt8functionIFRKNS_15StackSafetyInfoERNS_8FunctionEEEPKNS_18ModuleSummaryIndexE(ptr noundef nonnull align 8 dereferenceable(56) initializes((0, 40)) %0, ptr noundef %1, ptr noundef %2, ptr noundef %3) unnamed_addr #0 align 2 {
  store ptr %1, ptr %0, align 8
  %5 = getelementptr inbounds nuw i8, ptr %0, i64 8
  %6 = getelementptr inbounds nuw i8, ptr %2, i64 16
  tail call void @llvm.memset.p0.i64(ptr noundef nonnull align 8 dereferenceable(32) %5, i8 0, i64 32, i1 false)
  %7 = load ptr, ptr %6, align 8
  %.not.i.i.not.i = icmp eq ptr %7, null
  br i1 %.not.i.i.not.i, label %_ZNSt8functionIFRKN4llvm15StackSafetyInfoERNS0_8FunctionEEEC2ERKS7_.exit, label %8

8:                                                ; preds = %4
  %9 = getelementptr inbounds nuw i8, ptr %0, i64 32
  %10 = getelementptr inbounds nuw i8, ptr %0, i64 24
  %11 = tail call noundef zeroext i1 %7(ptr noundef nonnull align 8 dereferenceable(32) %5, ptr noundef nonnull align 8 dereferenceable(32) %2, i32 noundef 2) #25
  %12 = getelementptr inbounds nuw i8, ptr %2, i64 24
  %13 = load ptr, ptr %12, align 8
  store ptr %13, ptr %9, align 8
  %14 = load ptr, ptr %6, align 8
  store ptr %14, ptr %10, align 8
  br label %_ZNSt8functionIFRKN4llvm15StackSafetyInfoERNS0_8FunctionEEEC2ERKS7_.exit

_ZNSt8functionIFRKN4llvm15StackSafetyInfoERNS0_8FunctionEEEC2ERKS7_.exit: ; preds = %4, %8
  %15 = getelementptr inbounds nuw i8, ptr %0, i64 40
  store ptr %3, ptr %15, align 8
  %16 = getelementptr inbounds nuw i8, ptr %0, i64 48
  store ptr null, ptr %16, align 8
  %17 = load i8, ptr getelementptr inbounds nuw (i8, ptr @_ZL14StackSafetyRun, i64 128), align 8
  %18 = trunc i8 %17 to i1
  br i1 %18, label %19, label %21

19:                                               ; preds = %_ZNSt8functionIFRKN4llvm15StackSafetyInfoERNS0_8FunctionEEEC2ERKS7_.exit
  %20 = tail call noundef nonnull align 8 dereferenceable(192) ptr @_ZNK4llvm21StackSafetyGlobalInfo7getInfoEv(ptr noundef nonnull align 8 dereferenceable(56) %0)
  br label %21

21:                                               ; preds = %19, %_ZNSt8functionIFRKN4llvm15StackSafetyInfoERNS0_8FunctionEEEC2ERKS7_.exit
  ret void
}